target datalayout = "e-m:e-p270:32:32-p271:32:32-p272:64:64-i64:64-i128:128-f80:128-n8:16:32:64-S128"
target triple = "x86_64-unknown-linux-gnu"

%"class.pbrt::Point2" = type { %"class.pbrt::Tuple2" }
%"class.pbrt::Tuple2" = type { i32, i32 }
%"class.pbrt::Point2.100" = type { %"class.pbrt::Tuple2.101" }
%"class.pbrt::Tuple2.101" = type { float, float }

; Function Attrs: mustprogress nounwind uwtable
define linkonce_odr dso_local void @_ZN4pbrt6Tuple2INS_6Point2EfEC2Eff(ptr noundef nonnull align 4 dereferenceable(8) %this, float noundef %x, float noundef %y) unnamed_addr #2 comdat align 2 {
entry:
  %this.addr = alloca ptr, align 8
  %x.addr = alloca float, align 4
  %y.addr = alloca float, align 4
  store ptr %this, ptr %this.addr, align 8
  store float %x, ptr %x.addr, align 4
  store float %y, ptr %y.addr, align 4
  %this1 = load ptr, ptr %this.addr, align 8
  %x2 = getelementptr inbounds %"class.pbrt::Tuple2.101", ptr %this1, i32 0, i32 0
  %0 = load float, ptr %x.addr, align 4
  store float %0, ptr %x2, align 4
  %y3 = getelementptr inbounds %"class.pbrt::Tuple2.101", ptr %this1, i32 0, i32 1
  %1 = load float, ptr %y.addr, align 4
  store float %1, ptr %y3, align 4
  br label %do.body

do.body:                                          ; preds = %entry
  br label %do.end

do.end:                                           ; preds = %do.body
  ret void
}

; Function Attrs: mustprogress nounwind uwtable
define linkonce_odr dso_local void @_ZN4pbrt6Tuple2INS_6Point2EiEC2Eii(ptr noundef nonnull align 4 dereferenceable(8) %this, i32 noundef %x, i32 noundef %y) unnamed_addr #2 comdat align 2 {
entry:
  %this.addr = alloca ptr, align 8
  %x.addr = alloca i32, align 4
  %y.addr = alloca i32, align 4
  store ptr %this, ptr %this.addr, align 8
  store i32 %x, ptr %x.addr, align 4
  store i32 %y, ptr %y.addr, align 4
  %this1 = load ptr, ptr %this.addr, align 8
  %x2 = getelementptr inbounds %"class.pbrt::Tuple2", ptr %this1, i32 0, i32 0
  %0 = load i32, ptr %x.addr, align 4
  store i32 %0, ptr %x2, align 4
  %y3 = getelementptr inbounds %"class.pbrt::Tuple2", ptr %this1, i32 0, i32 1
  %1 = load i32, ptr %y.addr, align 4
  store i32 %1, ptr %y3, align 4
  br label %do.body

do.body:                                          ; preds = %entry
  br label %do.end

do.end:                                           ; preds = %do.body
  ret void
}

; Function Attrs: mustprogress uwtable
define linkonce_odr dso_local void @_ZN4pbrt6Point2IfEC2Eff(ptr noundef nonnull align 4 dereferenceable(8) %this, float noundef %x, float noundef %y) unnamed_addr #1 comdat align 2 {
entry:
  %this.addr = alloca ptr, align 8
  %x.addr = alloca float, align 4
  %y.addr = alloca float, align 4
  store ptr %this, ptr %this.addr, align 8
  store float %x, ptr %x.addr, align 4
  store float %y, ptr %y.addr, align 4
  %this1 = load ptr, ptr %this.addr, align 8
  %0 = load float, ptr %x.addr, align 4
  %1 = load float, ptr %y.addr, align 4
  call void @_ZN4pbrt6Tuple2INS_6Point2EfEC2Eff(ptr noundef nonnull align 4 dereferenceable(8) %this1, float noundef %0, float noundef %1)
  ret void
}

; Function Attrs: mustprogress uwtable
define linkonce_odr dso_local void @_ZN4pbrt6Point2IiEC2IfEENS0_IT_EE(ptr noundef nonnull align 4 dereferenceable(8) %this, <2 x float> %v.coerce) unnamed_addr #8 comdat align 2 {
entry:
  %v = alloca %"class.pbrt::Point2.100", align 4
  %this.addr = alloca ptr, align 8
  %coerce.dive = getelementptr inbounds %"class.pbrt::Point2.100", ptr %v, i32 0, i32 0
  store <2 x float> %v.coerce, ptr %coerce.dive, align 4
  store ptr %this, ptr %this.addr, align 8
  %this1 = load ptr, ptr %this.addr, align 8
  %x = getelementptr inbounds %"class.pbrt::Tuple2.101", ptr %v, i32 0, i32 0
  %0 = load float, ptr %x, align 4
  %conv = fptosi float %0 to i32
  %y = getelementptr inbounds %"class.pbrt::Tuple2.101", ptr %v, i32 0, i32 1
  %1 = load float, ptr %y, align 4
  %conv2 = fptosi float %1 to i32
  call void @_ZN4pbrt6Tuple2INS_6Point2EiEC2Eii(ptr noundef nonnull align 4 dereferenceable(8) %this1, i32 noundef %conv, i32 noundef %conv2)
  ret void
}

; Function Attrs: mustprogress uwtable
define linkonce_odr dso_local <2 x float> @_ZNK4pbrt6Tuple2INS_6Point2EfEmlIiEENS1_IDTmltlfEtlT_EEEES4_(ptr noundef nonnull align 4 dereferenceable(8) %this, i32 noundef %s) #8 comdat align 2 {
entry:
  %retval = alloca %"class.pbrt::Point2.100", align 4
  %this.addr = alloca ptr, align 8
  %s.addr = alloca i32, align 4
  store ptr %this, ptr %this.addr, align 8
  store i32 %s, ptr %s.addr, align 4
  %this1 = load ptr, ptr %this.addr, align 8
  %0 = load i32, ptr %s.addr, align 4
  %conv = sitofp i32 %0 to float
  %x = getelementptr inbounds %"class.pbrt::Tuple2.101", ptr %this1, i32 0, i32 0
  %1 = load float, ptr %x, align 4
  %mul = fmul float %conv, %1
  %2 = load i32, ptr %s.addr, align 4
  %conv2 = sitofp i32 %2 to float
  %y = getelementptr inbounds %"class.pbrt::Tuple2.101", ptr %this1, i32 0, i32 1
  %3 = load float, ptr %y, align 4
  %mul3 = fmul float %conv2, %3
  call void @_ZN4pbrt6Point2IfEC2Eff(ptr noundef nonnull align 4 dereferenceable(8) %retval, float noundef %mul, float noundef %mul3)
  %coerce.dive = getelementptr inbounds %"class.pbrt::Point2.100", ptr %retval, i32 0, i32 0
  %4 = load <2 x float>, ptr %coerce.dive, align 4
  ret <2 x float> %4
}

; Function Attrs: mustprogress uwtable
define internal noundef double @_ZN4pbrt5funcsL12checkerboardENS_6Point2IfEE(<2 x float> %p.coerce) #8 {
entry:
  %p = alloca %"class.pbrt::Point2.100", align 4
  %freq = alloca i32, align 4
  %pi = alloca %"class.pbrt::Point2", align 4
  %agg.tmp = alloca %"class.pbrt::Point2.100", align 4
  %coerce.dive = getelementptr inbounds %"class.pbrt::Point2.100", ptr %p, i32 0, i32 0
  store <2 x float> %p.coerce, ptr %coerce.dive, align 4
  store i32 10, ptr %freq, align 4
  %0 = load i32, ptr %freq, align 4
  %call = call <2 x float> @_ZNK4pbrt6Tuple2INS_6Point2EfEmlIiEENS1_IDTmltlfEtlT_EEEES4_(ptr noundef nonnull align 4 dereferenceable(8) %p, i32 noundef %0)
  %coerce.dive1 = getelementptr inbounds %"class.pbrt::Point2.100", ptr %agg.tmp, i32 0, i32 0
  store <2 x float> %call, ptr %coerce.dive1, align 4
  %coerce.dive2 = getelementptr inbounds %"class.pbrt::Point2.100", ptr %agg.tmp, i32 0, i32 0
  %1 = load <2 x float>, ptr %coerce.dive2, align 4
  call void @_ZN4pbrt6Point2IiEC2IfEENS0_IT_EE(ptr noundef nonnull align 4 dereferenceable(8) %pi, <2 x float> %1)
  %x = getelementptr inbounds %"class.pbrt::Tuple2", ptr %pi, i32 0, i32 0
  %2 = load i32, ptr %x, align 4
  %and = and i32 %2, 1
  %y = getelementptr inbounds %"class.pbrt::Tuple2", ptr %pi, i32 0, i32 1
  %3 = load i32, ptr %y, align 4
  %and3 = and i32 %3, 1
  %xor = xor i32 %and, %and3
  %tobool = icmp ne i32 %xor, 0
  %cond = select i1 %tobool, i32 2, i32 0
  %conv = sitofp i32 %cond to double
  ret double %conv
}