; Function Attrs: mustprogress nofree norecurse nosync nounwind willreturn memory(none) uwtable
define internal noundef double @_ZN4pbrt5funcsL12checkerboardENS_6Point2IfEE(<2 x float> %p.coerce) #16 {
entry:
  %0 = fmul <2 x float> %p.coerce, <float 1.000000e+01, float 1.000000e+01>
  %1 = fptosi <2 x float> %0 to <2 x i32>
  %shift = shufflevector <2 x i32> %1, <2 x i32> poison, <2 x i32> <i32 1, i32 poison>
  %2 = xor <2 x i32> %shift, %1
  %and1 = extractelement <2 x i32> %2, i64 0
  %xor = shl i32 %and1, 1
  %cond = and i32 %xor, 2
  %conv = sitofp i32 %cond to double
  ret double %conv
}